target datalayout = "e-m:e-p270:32:32-p271:32:32-p272:64:64-i64:64-i128:128-f80:128-n8:16:32:64-S128"
target triple = "x86_64-pc-linux-gnu"

%struct.FunctionCallInfoBaseData = type { ptr, ptr, ptr, i32, i8, i16, [0 x %struct.NullableDatum] }
%struct.NullableDatum = type { i64, i8 }
%struct.TSQueryData = type { i32, i32, [0 x i8] }
%struct.QueryOperand = type { i8, i8, i8, i32, i32 }
%union.QueryItem = type { %struct.QueryOperand }

; Function Attrs: inlinehint nounwind uwtable
define internal ptr @DatumGetPointer(i64 noundef %0) #2 {
  %2 = alloca i64, align 8
  store i64 %0, ptr %2, align 8
  %3 = load i64, ptr %2, align 8
  %4 = inttoptr i64 %3 to ptr
  ret ptr %4
}

; Function Attrs: inlinehint nounwind uwtable
define internal i64 @BoolGetDatum(i1 noundef zeroext %0) #2 {
  %2 = alloca i8, align 1
  %3 = zext i1 %0 to i8
  store i8 %3, ptr %2, align 1
  %4 = load i8, ptr %2, align 1, !range !4, !noundef !5
  %5 = trunc i8 %4 to i1
  %6 = select i1 %5, i32 1, i32 0
  %7 = sext i32 %6 to i64
  ret i64 %7
}

; Function Attrs: inlinehint nounwind uwtable
define internal i64 @qunique(ptr noundef %0, i64 noundef %1, i64 noundef %2, ptr noundef %3) #2 {
  %5 = alloca i64, align 8
  %6 = alloca ptr, align 8
  %7 = alloca i64, align 8
  %8 = alloca i64, align 8
  %9 = alloca ptr, align 8
  %10 = alloca ptr, align 8
  %11 = alloca i64, align 8
  %12 = alloca i64, align 8
  %13 = alloca i32, align 4
  store ptr %0, ptr %6, align 8
  store i64 %1, ptr %7, align 8
  store i64 %2, ptr %8, align 8
  store ptr %3, ptr %9, align 8
  call void @llvm.lifetime.start.p0(i64 8, ptr %10) #7
  %14 = load ptr, ptr %6, align 8
  store ptr %14, ptr %10, align 8
  call void @llvm.lifetime.start.p0(i64 8, ptr %11) #7
  call void @llvm.lifetime.start.p0(i64 8, ptr %12) #7
  %15 = load i64, ptr %7, align 8
  %16 = icmp ule i64 %15, 1
  br i1 %16, label %17, label %19

17:                                               ; preds = %4
  %18 = load i64, ptr %7, align 8
  store i64 %18, ptr %5, align 8
  store i32 1, ptr %13, align 4
  br label %62

19:                                               ; preds = %4
  store i64 1, ptr %11, align 8
  store i64 0, ptr %12, align 8
  br label %20

20:                                               ; preds = %56, %19
  %21 = load i64, ptr %11, align 8
  %22 = load i64, ptr %7, align 8
  %23 = icmp ult i64 %21, %22
  br i1 %23, label %24, label %59

24:                                               ; preds = %20
  %25 = load ptr, ptr %9, align 8
  %26 = load ptr, ptr %10, align 8
  %27 = load i64, ptr %11, align 8
  %28 = load i64, ptr %8, align 8
  %29 = mul i64 %27, %28
  %30 = getelementptr inbounds nuw i8, ptr %26, i64 %29
  %31 = load ptr, ptr %10, align 8
  %32 = load i64, ptr %12, align 8
  %33 = load i64, ptr %8, align 8
  %34 = mul i64 %32, %33
  %35 = getelementptr inbounds nuw i8, ptr %31, i64 %34
  %36 = call i32 %25(ptr noundef %30, ptr noundef %35)
  %37 = icmp ne i32 %36, 0
  br i1 %37, label %38, label %55

38:                                               ; preds = %24
  %39 = load i64, ptr %12, align 8
  %40 = add i64 %39, 1
  store i64 %40, ptr %12, align 8
  %41 = load i64, ptr %11, align 8
  %42 = icmp ne i64 %40, %41
  br i1 %42, label %43, label %55

43:                                               ; preds = %38
  %44 = load ptr, ptr %10, align 8
  %45 = load i64, ptr %12, align 8
  %46 = load i64, ptr %8, align 8
  %47 = mul i64 %45, %46
  %48 = getelementptr inbounds nuw i8, ptr %44, i64 %47
  %49 = load ptr, ptr %10, align 8
  %50 = load i64, ptr %11, align 8
  %51 = load i64, ptr %8, align 8
  %52 = mul i64 %50, %51
  %53 = getelementptr inbounds nuw i8, ptr %49, i64 %52
  %54 = load i64, ptr %8, align 8
  call void @llvm.memcpy.p0.p0.i64(ptr align 1 %48, ptr align 1 %53, i64 %54, i1 false)
  br label %55

55:                                               ; preds = %43, %38, %24
  br label %56

56:                                               ; preds = %55
  %57 = load i64, ptr %11, align 8
  %58 = add i64 %57, 1
  store i64 %58, ptr %11, align 8
  br label %20, !llvm.loop !11

59:                                               ; preds = %20
  %60 = load i64, ptr %12, align 8
  %61 = add i64 %60, 1
  store i64 %61, ptr %5, align 8
  store i32 1, ptr %13, align 4
  br label %62

62:                                               ; preds = %59, %17
  call void @llvm.lifetime.end.p0(i64 8, ptr %12) #7
  call void @llvm.lifetime.end.p0(i64 8, ptr %11) #7
  call void @llvm.lifetime.end.p0(i64 8, ptr %10) #7
  %63 = load i64, ptr %5, align 8
  ret i64 %63
}

; Function Attrs: nounwind uwtable
define internal ptr @collectTSQueryValues(ptr noundef %0, ptr noundef %1) #0 {
  %3 = alloca ptr, align 8
  %4 = alloca ptr, align 8
  %5 = alloca ptr, align 8
  %6 = alloca ptr, align 8
  %7 = alloca ptr, align 8
  %8 = alloca i32, align 4
  %9 = alloca i32, align 4
  %10 = alloca i32, align 4
  %11 = alloca ptr, align 8
  store ptr %0, ptr %3, align 8
  store ptr %1, ptr %4, align 8
  call void @llvm.lifetime.start.p0(i64 8, ptr %5) #7
  %12 = load ptr, ptr %3, align 8
  %13 = getelementptr inbounds nuw i8, ptr %12, i64 8
  store ptr %13, ptr %5, align 8
  call void @llvm.lifetime.start.p0(i64 8, ptr %6) #7
  %14 = load ptr, ptr %3, align 8
  %15 = getelementptr inbounds nuw i8, ptr %14, i64 8
  %16 = load ptr, ptr %3, align 8
  %17 = getelementptr inbounds nuw %struct.TSQueryData, ptr %16, i32 0, i32 1
  %18 = load i32, ptr %17, align 4
  %19 = sext i32 %18 to i64
  %20 = mul i64 %19, 12
  %21 = getelementptr inbounds nuw i8, ptr %15, i64 %20
  store ptr %21, ptr %6, align 8
  call void @llvm.lifetime.start.p0(i64 8, ptr %7) #7
  call void @llvm.lifetime.start.p0(i64 4, ptr %8) #7
  store i32 0, ptr %8, align 4
  call void @llvm.lifetime.start.p0(i64 4, ptr %9) #7
  %22 = load ptr, ptr %3, align 8
  %23 = getelementptr inbounds nuw %struct.TSQueryData, ptr %22, i32 0, i32 1
  %24 = load i32, ptr %23, align 4
  %25 = sext i32 %24 to i64
  %26 = mul i64 8, %25
  %27 = call ptr @palloc(i64 noundef %26)
  store ptr %27, ptr %7, align 8
  store i32 0, ptr %9, align 4
  br label %28

28:                                               ; preds = %71, %2
  %29 = load i32, ptr %9, align 4
  %30 = load ptr, ptr %3, align 8
  %31 = getelementptr inbounds nuw %struct.TSQueryData, ptr %30, i32 0, i32 1
  %32 = load i32, ptr %31, align 4
  %33 = icmp slt i32 %29, %32
  br i1 %33, label %34, label %74

34:                                               ; preds = %28
  %35 = load ptr, ptr %5, align 8
  %36 = load i8, ptr %35, align 4
  %37 = sext i8 %36 to i32
  %38 = icmp eq i32 %37, 1
  br i1 %38, label %39, label %68

39:                                               ; preds = %34
  call void @llvm.lifetime.start.p0(i64 4, ptr %10) #7
  %40 = load ptr, ptr %5, align 8
  %41 = getelementptr inbounds nuw %struct.QueryOperand, ptr %40, i32 0, i32 4
  %42 = load i32, ptr %41, align 4
  %43 = and i32 %42, 4095
  store i32 %43, ptr %10, align 4
  call void @llvm.lifetime.start.p0(i64 8, ptr %11) #7
  %44 = load i32, ptr %10, align 4
  %45 = add i32 %44, 1
  %46 = sext i32 %45 to i64
  %47 = call ptr @palloc(i64 noundef %46)
  store ptr %47, ptr %11, align 8
  %48 = load ptr, ptr %11, align 8
  %49 = load ptr, ptr %6, align 8
  %50 = load ptr, ptr %5, align 8
  %51 = getelementptr inbounds nuw %struct.QueryOperand, ptr %50, i32 0, i32 4
  %52 = load i32, ptr %51, align 4
  %53 = lshr i32 %52, 12
  %54 = sext i32 %53 to i64
  %55 = getelementptr inbounds i8, ptr %49, i64 %54
  %56 = load i32, ptr %10, align 4
  %57 = sext i32 %56 to i64
  call void @llvm.memcpy.p0.p0.i64(ptr align 1 %48, ptr align 1 %55, i64 %57, i1 false)
  %58 = load ptr, ptr %11, align 8
  %59 = load i32, ptr %10, align 4
  %60 = sext i32 %59 to i64
  %61 = getelementptr inbounds i8, ptr %58, i64 %60
  store i8 0, ptr %61, align 1
  %62 = load ptr, ptr %11, align 8
  %63 = load ptr, ptr %7, align 8
  %64 = load i32, ptr %8, align 4
  %65 = add i32 %64, 1
  store i32 %65, ptr %8, align 4
  %66 = sext i32 %64 to i64
  %67 = getelementptr inbounds ptr, ptr %63, i64 %66
  store ptr %62, ptr %67, align 8
  call void @llvm.lifetime.end.p0(i64 8, ptr %11) #7
  call void @llvm.lifetime.end.p0(i64 4, ptr %10) #7
  br label %68

68:                                               ; preds = %39, %34
  %69 = load ptr, ptr %5, align 8
  %70 = getelementptr inbounds nuw %union.QueryItem, ptr %69, i32 1
  store ptr %70, ptr %5, align 8
  br label %71

71:                                               ; preds = %68
  %72 = load i32, ptr %9, align 4
  %73 = add i32 %72, 1
  store i32 %73, ptr %9, align 4
  br label %28, !llvm.loop !10

74:                                               ; preds = %28
  %75 = load i32, ptr %8, align 4
  %76 = load ptr, ptr %4, align 8
  store i32 %75, ptr %76, align 4
  %77 = load ptr, ptr %7, align 8
  call void @llvm.lifetime.end.p0(i64 4, ptr %9) #7
  call void @llvm.lifetime.end.p0(i64 4, ptr %8) #7
  call void @llvm.lifetime.end.p0(i64 8, ptr %7) #7
  call void @llvm.lifetime.end.p0(i64 8, ptr %6) #7
  call void @llvm.lifetime.end.p0(i64 8, ptr %5) #7
  ret ptr %77
}

; Function Attrs: inlinehint nounwind uwtable
define internal ptr @DatumGetTSQuery(i64 noundef %0) #2 {
  %2 = alloca i64, align 8
  store i64 %0, ptr %2, align 8
  %3 = load i64, ptr %2, align 8
  %4 = call ptr @DatumGetPointer(i64 noundef %3)
  ret ptr %4
}

; Function Attrs: nounwind uwtable
define dso_local i64 @tsq_mcontains(ptr noundef %0) #0 {
  %2 = alloca ptr, align 8
  %3 = alloca ptr, align 8
  %4 = alloca ptr, align 8
  %5 = alloca ptr, align 8
  %6 = alloca i32, align 4
  %7 = alloca ptr, align 8
  %8 = alloca i32, align 4
  %9 = alloca i8, align 1
  %10 = alloca i32, align 4
  %11 = alloca i32, align 4
  store ptr %0, ptr %2, align 8
  call void @llvm.lifetime.start.p0(i64 8, ptr %3) #7
  %12 = load ptr, ptr %2, align 8
  %13 = getelementptr inbounds nuw %struct.FunctionCallInfoBaseData, ptr %12, i32 0, i32 6
  %14 = getelementptr inbounds [0 x %struct.NullableDatum], ptr %13, i64 0, i64 0
  %15 = getelementptr inbounds nuw %struct.NullableDatum, ptr %14, i32 0, i32 0
  %16 = load i64, ptr %15, align 8
  %17 = call ptr @DatumGetTSQuery(i64 noundef %16)
  store ptr %17, ptr %3, align 8
  call void @llvm.lifetime.start.p0(i64 8, ptr %4) #7
  %18 = load ptr, ptr %2, align 8
  %19 = getelementptr inbounds nuw %struct.FunctionCallInfoBaseData, ptr %18, i32 0, i32 6
  %20 = getelementptr inbounds [0 x %struct.NullableDatum], ptr %19, i64 0, i64 1
  %21 = getelementptr inbounds nuw %struct.NullableDatum, ptr %20, i32 0, i32 0
  %22 = load i64, ptr %21, align 8
  %23 = call ptr @DatumGetTSQuery(i64 noundef %22)
  store ptr %23, ptr %4, align 8
  call void @llvm.lifetime.start.p0(i64 8, ptr %5) #7
  call void @llvm.lifetime.start.p0(i64 4, ptr %6) #7
  call void @llvm.lifetime.start.p0(i64 8, ptr %7) #7
  call void @llvm.lifetime.start.p0(i64 4, ptr %8) #7
  call void @llvm.lifetime.start.p0(i64 1, ptr %9) #7
  store i8 1, ptr %9, align 1
  %24 = load ptr, ptr %3, align 8
  %25 = call ptr @collectTSQueryValues(ptr noundef %24, ptr noundef %6)
  store ptr %25, ptr %5, align 8
  %26 = load ptr, ptr %4, align 8
  %27 = call ptr @collectTSQueryValues(ptr noundef %26, ptr noundef %8)
  store ptr %27, ptr %7, align 8
  %28 = load ptr, ptr %5, align 8
  %29 = load i32, ptr %6, align 4
  %30 = sext i32 %29 to i64
  call void @pg_qsort(ptr noundef %28, i64 noundef %30, i64 noundef 8, ptr noundef @cmp_string)
  %31 = load ptr, ptr %5, align 8
  %32 = load i32, ptr %6, align 4
  %33 = sext i32 %32 to i64
  %34 = call i64 @qunique(ptr noundef %31, i64 noundef %33, i64 noundef 8, ptr noundef @cmp_string)
  %35 = trunc i64 %34 to i32
  store i32 %35, ptr %6, align 4
  %36 = load ptr, ptr %7, align 8
  %37 = load i32, ptr %8, align 4
  %38 = sext i32 %37 to i64
  call void @pg_qsort(ptr noundef %36, i64 noundef %38, i64 noundef 8, ptr noundef @cmp_string)
  %39 = load ptr, ptr %7, align 8
  %40 = load i32, ptr %8, align 4
  %41 = sext i32 %40 to i64
  %42 = call i64 @qunique(ptr noundef %39, i64 noundef %41, i64 noundef 8, ptr noundef @cmp_string)
  %43 = trunc i64 %42 to i32
  store i32 %43, ptr %8, align 4
  %44 = load i32, ptr %8, align 4
  %45 = load i32, ptr %6, align 4
  %46 = icmp sgt i32 %44, %45
  br i1 %46, label %47, label %48

47:                                               ; preds = %1
  store i8 0, ptr %9, align 1
  br label %86

48:                                               ; preds = %1
  call void @llvm.lifetime.start.p0(i64 4, ptr %10) #7
  call void @llvm.lifetime.start.p0(i64 4, ptr %11) #7
  store i32 0, ptr %11, align 4
  store i32 0, ptr %10, align 4
  br label %49

49:                                               ; preds = %82, %48
  %50 = load i32, ptr %10, align 4
  %51 = load i32, ptr %8, align 4
  %52 = icmp slt i32 %50, %51
  br i1 %52, label %53, label %85

53:                                               ; preds = %49
  br label %54

54:                                               ; preds = %73, %53
  %55 = load i32, ptr %11, align 4
  %56 = load i32, ptr %6, align 4
  %57 = icmp slt i32 %55, %56
  br i1 %57, label %58, label %76

58:                                               ; preds = %54
  %59 = load ptr, ptr %7, align 8
  %60 = load i32, ptr %10, align 4
  %61 = sext i32 %60 to i64
  %62 = getelementptr inbounds ptr, ptr %59, i64 %61
  %63 = load ptr, ptr %62, align 8
  %64 = load ptr, ptr %5, align 8
  %65 = load i32, ptr %11, align 4
  %66 = sext i32 %65 to i64
  %67 = getelementptr inbounds ptr, ptr %64, i64 %66
  %68 = load ptr, ptr %67, align 8
  %69 = call i32 @strcmp(ptr noundef %63, ptr noundef %68) #9
  %70 = icmp eq i32 %69, 0
  br i1 %70, label %71, label %72

71:                                               ; preds = %58
  br label %76

72:                                               ; preds = %58
  br label %73

73:                                               ; preds = %72
  %74 = load i32, ptr %11, align 4
  %75 = add i32 %74, 1
  store i32 %75, ptr %11, align 4
  br label %54, !llvm.loop !8

76:                                               ; preds = %71, %54
  %77 = load i32, ptr %11, align 4
  %78 = load i32, ptr %6, align 4
  %79 = icmp eq i32 %77, %78
  br i1 %79, label %80, label %81

80:                                               ; preds = %76
  store i8 0, ptr %9, align 1
  br label %85

81:                                               ; preds = %76
  br label %82

82:                                               ; preds = %81
  %83 = load i32, ptr %10, align 4
  %84 = add i32 %83, 1
  store i32 %84, ptr %10, align 4
  br label %49, !llvm.loop !9

85:                                               ; preds = %80, %49
  call void @llvm.lifetime.end.p0(i64 4, ptr %11) #7
  call void @llvm.lifetime.end.p0(i64 4, ptr %10) #7
  br label %86

86:                                               ; preds = %85, %47
  %87 = load i8, ptr %9, align 1, !range !4, !noundef !5
  %88 = trunc i8 %87 to i1
  %89 = call i64 @BoolGetDatum(i1 noundef zeroext %88)
  call void @llvm.lifetime.end.p0(i64 1, ptr %9) #7
  call void @llvm.lifetime.end.p0(i64 4, ptr %8) #7
  call void @llvm.lifetime.end.p0(i64 8, ptr %7) #7
  call void @llvm.lifetime.end.p0(i64 4, ptr %6) #7
  call void @llvm.lifetime.end.p0(i64 8, ptr %5) #7
  call void @llvm.lifetime.end.p0(i64 8, ptr %4) #7
  call void @llvm.lifetime.end.p0(i64 8, ptr %3) #7
  ret i64 %89
}