; Function Attrs: nounwind uwtable
define dso_local range(i64 0, 2) i64 @tsq_mcontains(ptr noundef readonly captures(none) %0) #2 {
  %2 = getelementptr inbounds nuw i8, ptr %0, i64 32
  %3 = load i64, ptr %2, align 8
  %4 = inttoptr i64 %3 to ptr
  %5 = getelementptr inbounds nuw i8, ptr %0, i64 48
  %6 = load i64, ptr %5, align 8
  %7 = inttoptr i64 %6 to ptr
  %8 = getelementptr inbounds nuw i8, ptr %4, i64 8
  %9 = getelementptr inbounds nuw i8, ptr %4, i64 4
  %10 = load i32, ptr %9, align 4
  %11 = sext i32 %10 to i64
  %12 = mul nsw i64 %11, 12
  %13 = getelementptr inbounds nuw i8, ptr %8, i64 %12
  %14 = shl nsw i64 %11, 3
  %15 = tail call ptr @palloc(i64 noundef %14) #9
  %16 = load i32, ptr %9, align 4
  %17 = icmp sgt i32 %16, 0
  br i1 %17, label %.lr.ph.i, label %collectTSQueryValues.exit

.lr.ph.i:                                         ; preds = %1, %37
  %18 = phi i32 [ %38, %37 ], [ %16, %1 ]
  %.026.i = phi ptr [ %39, %37 ], [ %8, %1 ]
  %.02225.i = phi i32 [ %.1.i, %37 ], [ 0, %1 ]
  %.02324.i = phi i32 [ %40, %37 ], [ 0, %1 ]
  %19 = load i8, ptr %.026.i, align 4
  %20 = icmp eq i8 %19, 1
  br i1 %20, label %21, label %37

21:                                               ; preds = %.lr.ph.i
  %22 = getelementptr inbounds nuw i8, ptr %.026.i, i64 8
  %23 = load i32, ptr %22, align 4
  %24 = and i32 %23, 4095
  %25 = add nuw nsw i32 %24, 1
  %26 = zext nneg i32 %25 to i64
  %27 = tail call ptr @palloc(i64 noundef %26) #9
  %28 = load i32, ptr %22, align 4
  %29 = lshr i32 %28, 12
  %30 = zext nneg i32 %29 to i64
  %31 = getelementptr inbounds nuw i8, ptr %13, i64 %30
  %32 = zext nneg i32 %24 to i64
  tail call void @llvm.memcpy.p0.p0.i64(ptr align 1 %27, ptr nonnull readonly align 1 %31, i64 %32, i1 false)
  %33 = getelementptr inbounds nuw i8, ptr %27, i64 %32
  store i8 0, ptr %33, align 1
  %34 = add i32 %.02225.i, 1
  %35 = sext i32 %.02225.i to i64
  %36 = getelementptr inbounds ptr, ptr %15, i64 %35
  store ptr %27, ptr %36, align 8
  %.pre.i = load i32, ptr %9, align 4
  br label %37

37:                                               ; preds = %21, %.lr.ph.i
  %38 = phi i32 [ %.pre.i, %21 ], [ %18, %.lr.ph.i ]
  %.1.i = phi i32 [ %34, %21 ], [ %.02225.i, %.lr.ph.i ]
  %39 = getelementptr inbounds nuw i8, ptr %.026.i, i64 12
  %40 = add nuw nsw i32 %.02324.i, 1
  %41 = icmp slt i32 %40, %38
  br i1 %41, label %.lr.ph.i, label %collectTSQueryValues.exit, !llvm.loop !6

collectTSQueryValues.exit:                        ; preds = %37, %1
  %.022.lcssa.i = phi i32 [ 0, %1 ], [ %.1.i, %37 ]
  %42 = getelementptr inbounds nuw i8, ptr %7, i64 8
  %43 = getelementptr inbounds nuw i8, ptr %7, i64 4
  %44 = load i32, ptr %43, align 4
  %45 = sext i32 %44 to i64
  %46 = mul nsw i64 %45, 12
  %47 = getelementptr inbounds nuw i8, ptr %42, i64 %46
  %48 = shl nsw i64 %45, 3
  %49 = tail call ptr @palloc(i64 noundef %48) #9
  %50 = load i32, ptr %43, align 4
  %51 = icmp sgt i32 %50, 0
  br i1 %51, label %.lr.ph.i21, label %collectTSQueryValues.exit27

.lr.ph.i21:                                       ; preds = %collectTSQueryValues.exit, %71
  %52 = phi i32 [ %72, %71 ], [ %50, %collectTSQueryValues.exit ]
  %.026.i22 = phi ptr [ %73, %71 ], [ %42, %collectTSQueryValues.exit ]
  %.02225.i23 = phi i32 [ %.1.i25, %71 ], [ 0, %collectTSQueryValues.exit ]
  %.02324.i24 = phi i32 [ %74, %71 ], [ 0, %collectTSQueryValues.exit ]
  %53 = load i8, ptr %.026.i22, align 4
  %54 = icmp eq i8 %53, 1
  br i1 %54, label %55, label %71

55:                                               ; preds = %.lr.ph.i21
  %56 = getelementptr inbounds nuw i8, ptr %.026.i22, i64 8
  %57 = load i32, ptr %56, align 4
  %58 = and i32 %57, 4095
  %59 = add nuw nsw i32 %58, 1
  %60 = zext nneg i32 %59 to i64
  %61 = tail call ptr @palloc(i64 noundef %60) #9
  %62 = load i32, ptr %56, align 4
  %63 = lshr i32 %62, 12
  %64 = zext nneg i32 %63 to i64
  %65 = getelementptr inbounds nuw i8, ptr %47, i64 %64
  %66 = zext nneg i32 %58 to i64
  tail call void @llvm.memcpy.p0.p0.i64(ptr align 1 %61, ptr nonnull readonly align 1 %65, i64 %66, i1 false)
  %67 = getelementptr inbounds nuw i8, ptr %61, i64 %66
  store i8 0, ptr %67, align 1
  %68 = add i32 %.02225.i23, 1
  %69 = sext i32 %.02225.i23 to i64
  %70 = getelementptr inbounds ptr, ptr %49, i64 %69
  store ptr %61, ptr %70, align 8
  %.pre.i26 = load i32, ptr %43, align 4
  br label %71

71:                                               ; preds = %55, %.lr.ph.i21
  %72 = phi i32 [ %.pre.i26, %55 ], [ %52, %.lr.ph.i21 ]
  %.1.i25 = phi i32 [ %68, %55 ], [ %.02225.i23, %.lr.ph.i21 ]
  %73 = getelementptr inbounds nuw i8, ptr %.026.i22, i64 12
  %74 = add nuw nsw i32 %.02324.i24, 1
  %75 = icmp slt i32 %74, %72
  br i1 %75, label %.lr.ph.i21, label %collectTSQueryValues.exit27, !llvm.loop !6

collectTSQueryValues.exit27:                      ; preds = %71, %collectTSQueryValues.exit
  %.022.lcssa.i20 = phi i32 [ 0, %collectTSQueryValues.exit ], [ %.1.i25, %71 ]
  %76 = sext i32 %.022.lcssa.i to i64
  tail call void @pg_qsort(ptr noundef %15, i64 noundef %76, i64 noundef 8, ptr noundef nonnull @cmp_string) #9
  %77 = icmp ult i32 %.022.lcssa.i, 2
  br i1 %77, label %qunique.exit, label %.preheader.i

.preheader.i:                                     ; preds = %collectTSQueryValues.exit27, %91
  %.02.i = phi i64 [ %.1.i28, %91 ], [ 0, %collectTSQueryValues.exit27 ]
  %.0231.i = phi i64 [ %92, %91 ], [ 1, %collectTSQueryValues.exit27 ]
  %78 = shl i64 %.0231.i, 3
  %79 = getelementptr inbounds nuw i8, ptr %15, i64 %78
  %80 = shl i64 %.02.i, 3
  %81 = getelementptr inbounds nuw i8, ptr %15, i64 %80
  %82 = load ptr, ptr %79, align 8
  %83 = load ptr, ptr %81, align 8
  %84 = tail call i32 @strcmp(ptr noundef nonnull dereferenceable(1) %82, ptr noundef nonnull dereferenceable(1) %83) #11
  %.not.i = icmp eq i32 %84, 0
  %85 = ptrtoint ptr %82 to i64
  br i1 %.not.i, label %91, label %86

86:                                               ; preds = %.preheader.i
  %87 = add i64 %.02.i, 1
  %.not29.i = icmp eq i64 %87, %.0231.i
  br i1 %.not29.i, label %91, label %88

88:                                               ; preds = %86
  %89 = shl i64 %87, 3
  %90 = getelementptr inbounds nuw i8, ptr %15, i64 %89
  store i64 %85, ptr %90, align 1
  br label %91

91:                                               ; preds = %88, %86, %.preheader.i
  %.1.i28 = phi i64 [ %87, %88 ], [ %.0231.i, %86 ], [ %.02.i, %.preheader.i ]
  %92 = add nuw i64 %.0231.i, 1
  %exitcond.not.i = icmp eq i64 %92, %76
  br i1 %exitcond.not.i, label %93, label %.preheader.i, !llvm.loop !7

93:                                               ; preds = %91
  %94 = trunc i64 %.1.i28 to i32
  %95 = add i32 %94, 1
  br label %qunique.exit

qunique.exit:                                     ; preds = %collectTSQueryValues.exit27, %93
  %.024.i = phi i32 [ %95, %93 ], [ %.022.lcssa.i, %collectTSQueryValues.exit27 ]
  %96 = sext i32 %.022.lcssa.i20 to i64
  tail call void @pg_qsort(ptr noundef %49, i64 noundef %96, i64 noundef 8, ptr noundef nonnull @cmp_string) #9
  %97 = icmp ult i32 %.022.lcssa.i20, 2
  br i1 %97, label %qunique.exit37, label %.preheader.i29

.preheader.i29:                                   ; preds = %qunique.exit, %111
  %.02.i30 = phi i64 [ %.1.i34, %111 ], [ 0, %qunique.exit ]
  %.0231.i31 = phi i64 [ %112, %111 ], [ 1, %qunique.exit ]
  %98 = shl i64 %.0231.i31, 3
  %99 = getelementptr inbounds nuw i8, ptr %49, i64 %98
  %100 = shl i64 %.02.i30, 3
  %101 = getelementptr inbounds nuw i8, ptr %49, i64 %100
  %102 = load ptr, ptr %99, align 8
  %103 = load ptr, ptr %101, align 8
  %104 = tail call i32 @strcmp(ptr noundef nonnull dereferenceable(1) %102, ptr noundef nonnull dereferenceable(1) %103) #11
  %.not.i32 = icmp eq i32 %104, 0
  %105 = ptrtoint ptr %102 to i64
  br i1 %.not.i32, label %111, label %106

106:                                              ; preds = %.preheader.i29
  %107 = add i64 %.02.i30, 1
  %.not29.i33 = icmp eq i64 %107, %.0231.i31
  br i1 %.not29.i33, label %111, label %108

108:                                              ; preds = %106
  %109 = shl i64 %107, 3
  %110 = getelementptr inbounds nuw i8, ptr %49, i64 %109
  store i64 %105, ptr %110, align 1
  br label %111

111:                                              ; preds = %108, %106, %.preheader.i29
  %.1.i34 = phi i64 [ %107, %108 ], [ %.0231.i31, %106 ], [ %.02.i30, %.preheader.i29 ]
  %112 = add nuw i64 %.0231.i31, 1
  %exitcond.not.i35 = icmp eq i64 %112, %96
  br i1 %exitcond.not.i35, label %113, label %.preheader.i29, !llvm.loop !7

113:                                              ; preds = %111
  %114 = trunc i64 %.1.i34 to i32
  %115 = add i32 %114, 1
  br label %qunique.exit37

qunique.exit37:                                   ; preds = %qunique.exit, %113
  %.024.i36 = phi i32 [ %115, %113 ], [ %.022.lcssa.i20, %qunique.exit ]
  %116 = icmp slt i32 %.024.i, %.024.i36
  br i1 %116, label %.loopexit, label %.preheader45

.preheader45:                                     ; preds = %qunique.exit37
  %.not49 = icmp sgt i32 %.024.i36, 0
  br i1 %.not49, label %.preheader.preheader, label %.loopexit

.preheader.preheader:                             ; preds = %.preheader45
  %117 = sext i32 %.024.i to i64
  %wide.trip.count = zext nneg i32 %.024.i36 to i64
  br label %.preheader

118:                                              ; preds = %._crit_edge
  %indvars.iv.next57 = add nuw nsw i64 %indvars.iv56, 1
  %exitcond59.not = icmp eq i64 %indvars.iv.next57, %wide.trip.count
  br i1 %exitcond59.not, label %.loopexit, label %.preheader, !llvm.loop !8

.preheader:                                       ; preds = %.preheader.preheader, %118
  %indvars.iv56 = phi i64 [ 0, %.preheader.preheader ], [ %indvars.iv.next57, %118 ]
  %.051 = phi i32 [ 0, %.preheader.preheader ], [ %.1.lcssa, %118 ]
  %119 = icmp slt i32 %.051, %.024.i
  br i1 %119, label %.lr.ph, label %._crit_edge

.lr.ph:                                           ; preds = %.preheader
  %120 = getelementptr inbounds nuw ptr, ptr %49, i64 %indvars.iv56
  %121 = load ptr, ptr %120, align 8
  %122 = sext i32 %.051 to i64
  br label %123

123:                                              ; preds = %.lr.ph, %128
  %indvars.iv = phi i64 [ %122, %.lr.ph ], [ %indvars.iv.next, %128 ]
  %124 = getelementptr inbounds ptr, ptr %15, i64 %indvars.iv
  %125 = load ptr, ptr %124, align 8
  %126 = tail call i32 @strcmp(ptr noundef nonnull dereferenceable(1) %121, ptr noundef nonnull dereferenceable(1) %125) #11
  %127 = icmp eq i32 %126, 0
  br i1 %127, label %._crit_edge.loopexit, label %128

128:                                              ; preds = %123
  %indvars.iv.next = add nsw i64 %indvars.iv, 1
  %exitcond.not = icmp eq i64 %indvars.iv.next, %117
  br i1 %exitcond.not, label %.loopexit, label %123, !llvm.loop !9

._crit_edge.loopexit:                             ; preds = %123
  %129 = trunc nsw i64 %indvars.iv to i32
  br label %._crit_edge

._crit_edge:                                      ; preds = %._crit_edge.loopexit, %.preheader
  %.1.lcssa = phi i32 [ %.051, %.preheader ], [ %129, %._crit_edge.loopexit ]
  %130 = icmp eq i32 %.1.lcssa, %.024.i
  br i1 %130, label %.loopexit, label %118

.loopexit:                                        ; preds = %._crit_edge, %118, %128, %.preheader45, %qunique.exit37
  %.018 = phi i64 [ 0, %qunique.exit37 ], [ 1, %.preheader45 ], [ 0, %128 ], [ 0, %._crit_edge ], [ 1, %118 ]
  ret i64 %.018
}